target datalayout = "e-m:e-p270:32:32-p271:32:32-p272:64:64-i64:64-i128:128-f80:128-n8:16:32:64-S128"
target triple = "x86_64-pc-linux-gnu"

%struct.pointf_s = type { double, double }
%struct.router_s = type { i32, ptr, ptr, ptr, ptr, i32, ptr }
%struct.tgraph = type { ptr, i64, ptr, i32 }
%struct.tnode = type { i64, ptr, %struct.pointf_s }

; Function Attrs: nounwind uwtable
define internal void @freeTriGraph(ptr noundef %0) #0 {
  %2 = alloca ptr, align 8
  %3 = alloca i64, align 8
  store ptr %0, ptr %2, align 8, !tbaa !18
  call void @llvm.lifetime.start.p0(i64 8, ptr %3) #12
  store i64 0, ptr %3, align 8, !tbaa !19
  br label %4

4:                                                ; preds = %19, %1
  %5 = load i64, ptr %3, align 8, !tbaa !19
  %6 = load ptr, ptr %2, align 8, !tbaa !18
  %7 = getelementptr inbounds nuw %struct.tgraph, ptr %6, i32 0, i32 1
  %8 = load i64, ptr %7, align 8, !tbaa !21
  %9 = icmp ult i64 %5, %8
  br i1 %9, label %11, label %10

10:                                               ; preds = %4
  call void @llvm.lifetime.end.p0(i64 8, ptr %3) #12
  br label %22

11:                                               ; preds = %4
  %12 = load ptr, ptr %2, align 8, !tbaa !18
  %13 = getelementptr inbounds nuw %struct.tgraph, ptr %12, i32 0, i32 0
  %14 = load ptr, ptr %13, align 8, !tbaa !23
  %15 = load i64, ptr %3, align 8, !tbaa !19
  %16 = getelementptr inbounds nuw %struct.tnode, ptr %14, i64 %15
  %17 = getelementptr inbounds nuw %struct.tnode, ptr %16, i32 0, i32 1
  %18 = load ptr, ptr %17, align 8, !tbaa !24
  call void @free(ptr noundef %18) #12
  br label %19

19:                                               ; preds = %11
  %20 = load i64, ptr %3, align 8, !tbaa !19
  %21 = add i64 %20, 1
  store i64 %21, ptr %3, align 8, !tbaa !19
  br label %4, !llvm.loop !28

22:                                               ; preds = %10
  %23 = load ptr, ptr %2, align 8, !tbaa !18
  %24 = getelementptr inbounds nuw %struct.tgraph, ptr %23, i32 0, i32 0
  %25 = load ptr, ptr %24, align 8, !tbaa !23
  call void @free(ptr noundef %25) #12
  %26 = load ptr, ptr %2, align 8, !tbaa !18
  %27 = getelementptr inbounds nuw %struct.tgraph, ptr %26, i32 0, i32 2
  %28 = load ptr, ptr %27, align 8, !tbaa !30
  call void @free(ptr noundef %28) #12
  %29 = load ptr, ptr %2, align 8, !tbaa !18
  call void @free(ptr noundef %29) #12
  ret void
}

; Function Attrs: nounwind uwtable
define void @freeRouter(ptr noundef %0) #0 {
  %2 = alloca ptr, align 8
  store ptr %0, ptr %2, align 8, !tbaa !3
  %3 = load ptr, ptr %2, align 8, !tbaa !3
  %4 = getelementptr inbounds nuw %struct.router_s, ptr %3, i32 0, i32 1
  %5 = load ptr, ptr %4, align 8, !tbaa !8
  call void @free(ptr noundef %5) #12
  %6 = load ptr, ptr %2, align 8, !tbaa !3
  %7 = getelementptr inbounds nuw %struct.router_s, ptr %6, i32 0, i32 2
  %8 = load ptr, ptr %7, align 8, !tbaa !14
  call void @free(ptr noundef %8) #12
  %9 = load ptr, ptr %2, align 8, !tbaa !3
  %10 = getelementptr inbounds nuw %struct.router_s, ptr %9, i32 0, i32 3
  %11 = load ptr, ptr %10, align 8, !tbaa !15
  call void @free(ptr noundef %11) #12
  %12 = load ptr, ptr %2, align 8, !tbaa !3
  %13 = getelementptr inbounds nuw %struct.router_s, ptr %12, i32 0, i32 4
  %14 = load ptr, ptr %13, align 8, !tbaa !16
  %15 = call i32 @dtclose(ptr noundef %14)
  %16 = load ptr, ptr %2, align 8, !tbaa !3
  %17 = getelementptr inbounds nuw %struct.router_s, ptr %16, i32 0, i32 6
  %18 = load ptr, ptr %17, align 8, !tbaa !17
  call void @freeTriGraph(ptr noundef %18)
  %19 = load ptr, ptr %2, align 8, !tbaa !3
  call void @free(ptr noundef %19) #12
  ret void
}