; Function Attrs: nounwind uwtable
define void @freeRouter(ptr noundef captures(none) %0) local_unnamed_addr #0 {
  %2 = getelementptr inbounds nuw i8, ptr %0, i64 8
  %3 = load ptr, ptr %2, align 8, !tbaa !3
  tail call void @free(ptr noundef %3) #18
  %4 = getelementptr inbounds nuw i8, ptr %0, i64 16
  %5 = load ptr, ptr %4, align 8, !tbaa !12
  tail call void @free(ptr noundef %5) #18
  %6 = getelementptr inbounds nuw i8, ptr %0, i64 24
  %7 = load ptr, ptr %6, align 8, !tbaa !13
  tail call void @free(ptr noundef %7) #18
  %8 = getelementptr inbounds nuw i8, ptr %0, i64 32
  %9 = load ptr, ptr %8, align 8, !tbaa !14
  %10 = tail call i32 @dtclose(ptr noundef %9) #18
  %11 = getelementptr inbounds nuw i8, ptr %0, i64 48
  %12 = load ptr, ptr %11, align 8, !tbaa !15
  %13 = getelementptr inbounds nuw i8, ptr %12, i64 8
  %14 = load i64, ptr %13, align 8, !tbaa !16
  %.not.i = icmp eq i64 %14, 0
  br i1 %.not.i, label %freeTriGraph.exit, label %.lr.ph.i

.lr.ph.i:                                         ; preds = %1, %.lr.ph.i
  %.07.i = phi i64 [ %18, %.lr.ph.i ], [ 0, %1 ]
  %15 = load ptr, ptr %12, align 8, !tbaa !19
  %16 = getelementptr inbounds nuw %struct.tnode, ptr %15, i64 %.07.i, i32 1
  %17 = load ptr, ptr %16, align 8, !tbaa !20
  tail call void @free(ptr noundef %17) #18
  %18 = add nuw i64 %.07.i, 1
  %19 = load i64, ptr %13, align 8, !tbaa !16
  %20 = icmp ult i64 %18, %19
  br i1 %20, label %.lr.ph.i, label %freeTriGraph.exit, !llvm.loop !24

freeTriGraph.exit:                                ; preds = %.lr.ph.i, %1
  %21 = load ptr, ptr %12, align 8, !tbaa !19
  tail call void @free(ptr noundef %21) #18
  %22 = getelementptr inbounds nuw i8, ptr %12, i64 16
  %23 = load ptr, ptr %22, align 8, !tbaa !26
  tail call void @free(ptr noundef %23) #18
  tail call void @free(ptr noundef nonnull %12) #18
  tail call void @free(ptr noundef %0) #18
  ret void
}